; Function Attrs: mustprogress nounwind uwtable
define internal fastcc void @_ZNSt10unique_ptrIN2cm12_GLOBAL__N_19write_reqESt14default_deleteIS2_EED2Ev(ptr nocapture noundef nonnull align 8 dereferenceable(8) %0) unnamed_addr #1 align 2 personality ptr @__gxx_personality_v0 {
  %2 = load ptr, ptr %0, align 8
  %.not = icmp eq ptr %2, null
  br i1 %.not, label %19, label %3

3:                                                ; preds = %1
  %4 = getelementptr i8, ptr %2, i64 200
  %.val.i = load ptr, ptr %4, align 8
  %.not.i.i.i.i.i = icmp eq ptr %.val.i, null
  br i1 %.not.i.i.i.i.i, label %_ZNKSt14default_deleteIN2cm12_GLOBAL__N_19write_reqEEclEPS2_.exit, label %5

5:                                                ; preds = %3
  %6 = getelementptr inbounds i8, ptr %.val.i, i64 12
  %7 = load i8, ptr @__libc_single_threaded, align 1
  %.not.i.i.i.i.i.i = icmp eq i8 %7, 0
  br i1 %.not.i.i.i.i.i.i, label %11, label %8

8:                                                ; preds = %5
  %9 = load i32, ptr %6, align 4
  %10 = add nsw i32 %9, -1
  store i32 %10, ptr %6, align 4
  br label %13

11:                                               ; preds = %5
  %12 = atomicrmw volatile add ptr %6, i32 -1 acq_rel, align 4
  br label %13

13:                                               ; preds = %11, %8
  %.0.i.i.i.i.i.i = phi i32 [ %9, %8 ], [ %12, %11 ]
  %14 = icmp eq i32 %.0.i.i.i.i.i.i, 1
  br i1 %14, label %15, label %_ZNKSt14default_deleteIN2cm12_GLOBAL__N_19write_reqEEclEPS2_.exit

15:                                               ; preds = %13
  %16 = load ptr, ptr %.val.i, align 8
  %17 = getelementptr inbounds i8, ptr %16, i64 24
  %18 = load ptr, ptr %17, align 8
  tail call void %18(ptr noundef nonnull align 8 dereferenceable(16) %.val.i) #16
  br label %_ZNKSt14default_deleteIN2cm12_GLOBAL__N_19write_reqEEclEPS2_.exit

_ZNKSt14default_deleteIN2cm12_GLOBAL__N_19write_reqEEclEPS2_.exit: ; preds = %3, %13, %15
  tail call void @_ZdlPv(ptr noundef nonnull %2) #21
  br label %19

19:                                               ; preds = %_ZNKSt14default_deleteIN2cm12_GLOBAL__N_19write_reqEEclEPS2_.exit, %1
  store ptr null, ptr %0, align 8
  ret void
}